target datalayout = "e-m:e-p270:32:32-p271:32:32-p272:64:64-i64:64-i128:128-f80:128-n8:16:32:64-S128"
target triple = "x86_64-unknown-linux-gnu"

%"class.QuantLib::DayCounter" = type { %"class.boost::shared_ptr" }
%"class.boost::shared_ptr" = type { ptr, %"class.boost::detail::shared_count" }
%"class.boost::detail::shared_count" = type { ptr }
%"class.QuantLib::Date" = type { i64 }

@_ZN8QuantLib12_GLOBAL__N_18fallbackE = internal global %"class.QuantLib::DayCounter" zeroinitializer, align 8

; Function Attrs: inlinehint mustprogress uwtable
define linkonce_odr noundef i32 @_ZNK8QuantLib4Date9dayOfYearEv(ptr noundef nonnull align 8 dereferenceable(8) %this) #6 comdat align 2 {
entry:
  %this.addr = alloca ptr, align 8
  store ptr %this, ptr %this.addr, align 8, !tbaa !3
  %this1 = load ptr, ptr %this.addr, align 8
  %serialNumber_ = getelementptr inbounds nuw %"class.QuantLib::Date", ptr %this1, i32 0, i32 0
  %0 = load i64, ptr %serialNumber_, align 8, !tbaa !61
  %call = call noundef i32 @_ZNK8QuantLib4Date4yearEv(ptr noundef nonnull align 8 dereferenceable(8) %this1)
  %call2 = call noundef i64 @_ZN8QuantLib4Date10yearOffsetEi(i32 noundef %call)
  %sub = sub nsw i64 %0, %call2
  %conv = trunc i64 %sub to i32
  ret i32 %conv
}

; Function Attrs: inlinehint mustprogress uwtable
define linkonce_odr noundef zeroext i1 @_ZN8QuantLib4Date12isEndOfMonthERKS0_(ptr noundef nonnull align 8 dereferenceable(8) %d) #6 comdat align 2 {
entry:
  %d.addr = alloca ptr, align 8
  store ptr %d, ptr %d.addr, align 8, !tbaa !3
  %0 = load ptr, ptr %d.addr, align 8, !tbaa !3
  %call = call noundef i32 @_ZNK8QuantLib4Date10dayOfMonthEv(ptr noundef nonnull align 8 dereferenceable(8) %0)
  %1 = load ptr, ptr %d.addr, align 8, !tbaa !3
  %call1 = call noundef i32 @_ZNK8QuantLib4Date5monthEv(ptr noundef nonnull align 8 dereferenceable(8) %1)
  %2 = load ptr, ptr %d.addr, align 8, !tbaa !3
  %call2 = call noundef i32 @_ZNK8QuantLib4Date4yearEv(ptr noundef nonnull align 8 dereferenceable(8) %2)
  %call3 = call noundef zeroext i1 @_ZN8QuantLib4Date6isLeapEi(i32 noundef %call2)
  %call4 = call noundef i32 @_ZN8QuantLib4Date11monthLengthENS_5MonthEb(i32 noundef %call1, i1 noundef zeroext %call3)
  %cmp = icmp eq i32 %call, %call4
  ret i1 %cmp
}

; Function Attrs: inlinehint mustprogress uwtable
define linkonce_odr noundef i32 @_ZNK8QuantLib4Date10dayOfMonthEv(ptr noundef nonnull align 8 dereferenceable(8) %this) #6 comdat align 2 {
entry:
  %this.addr = alloca ptr, align 8
  store ptr %this, ptr %this.addr, align 8, !tbaa !3
  %this1 = load ptr, ptr %this.addr, align 8
  %call = call noundef i32 @_ZNK8QuantLib4Date9dayOfYearEv(ptr noundef nonnull align 8 dereferenceable(8) %this1)
  %call2 = call noundef i32 @_ZNK8QuantLib4Date5monthEv(ptr noundef nonnull align 8 dereferenceable(8) %this1)
  %call3 = call noundef i32 @_ZNK8QuantLib4Date4yearEv(ptr noundef nonnull align 8 dereferenceable(8) %this1)
  %call4 = call noundef zeroext i1 @_ZN8QuantLib4Date6isLeapEi(i32 noundef %call3)
  %call5 = call noundef i32 @_ZN8QuantLib4Date11monthOffsetENS_5MonthEb(i32 noundef %call2, i1 noundef zeroext %call4)
  %sub = sub nsw i32 %call, %call5
  ret i32 %sub
}

; Function Attrs: mustprogress uwtable
define noundef double @_ZNK8QuantLib16SimpleDayCounter4Impl12yearFractionERKNS_4DateES4_S4_S4_(ptr noundef nonnull align 8 dereferenceable(8) %this, ptr noundef nonnull align 8 dereferenceable(8) %d1, ptr noundef nonnull align 8 dereferenceable(8) %d2, ptr noundef nonnull align 8 dereferenceable(8) %0, ptr noundef nonnull align 8 dereferenceable(8) %1) unnamed_addr #3 align 2 {
entry:
  %retval = alloca double, align 8
  %this.addr = alloca ptr, align 8
  %d1.addr = alloca ptr, align 8
  %d2.addr = alloca ptr, align 8
  %.addr = alloca ptr, align 8
  %.addr1 = alloca ptr, align 8
  %dm1 = alloca i32, align 4
  %dm2 = alloca i32, align 4
  %cleanup.dest.slot = alloca i32, align 4
  %ref.tmp = alloca %"class.QuantLib::Date", align 8
  %ref.tmp16 = alloca %"class.QuantLib::Date", align 8
  store ptr %this, ptr %this.addr, align 8, !tbaa !3
  store ptr %d1, ptr %d1.addr, align 8, !tbaa !3
  store ptr %d2, ptr %d2.addr, align 8, !tbaa !3
  store ptr %0, ptr %.addr, align 8, !tbaa !3
  store ptr %1, ptr %.addr1, align 8, !tbaa !3
  call void @llvm.lifetime.start.p0(i64 4, ptr %dm1) #5
  %2 = load ptr, ptr %d1.addr, align 8, !tbaa !3
  %call = call noundef i32 @_ZNK8QuantLib4Date10dayOfMonthEv(ptr noundef nonnull align 8 dereferenceable(8) %2)
  store i32 %call, ptr %dm1, align 4, !tbaa !11
  call void @llvm.lifetime.start.p0(i64 4, ptr %dm2) #5
  %3 = load ptr, ptr %d2.addr, align 8, !tbaa !3
  %call3 = call noundef i32 @_ZNK8QuantLib4Date10dayOfMonthEv(ptr noundef nonnull align 8 dereferenceable(8) %3)
  store i32 %call3, ptr %dm2, align 4, !tbaa !11
  %4 = load i32, ptr %dm1, align 4, !tbaa !11
  %5 = load i32, ptr %dm2, align 4, !tbaa !11
  %cmp = icmp eq i32 %4, %5
  br i1 %cmp, label %if.then, label %lor.lhs.false

lor.lhs.false:                                    ; preds = %entry
  %6 = load i32, ptr %dm1, align 4, !tbaa !11
  %7 = load i32, ptr %dm2, align 4, !tbaa !11
  %cmp4 = icmp sgt i32 %6, %7
  br i1 %cmp4, label %land.lhs.true, label %lor.lhs.false6

land.lhs.true:                                    ; preds = %lor.lhs.false
  %8 = load ptr, ptr %d2.addr, align 8, !tbaa !3
  %call5 = call noundef zeroext i1 @_ZN8QuantLib4Date12isEndOfMonthERKS0_(ptr noundef nonnull align 8 dereferenceable(8) %8)
  br i1 %call5, label %if.then, label %lor.lhs.false6

lor.lhs.false6:                                   ; preds = %land.lhs.true, %lor.lhs.false
  %9 = load i32, ptr %dm1, align 4, !tbaa !11
  %10 = load i32, ptr %dm2, align 4, !tbaa !11
  %cmp7 = icmp slt i32 %9, %10
  br i1 %cmp7, label %land.lhs.true8, label %if.else

land.lhs.true8:                                   ; preds = %lor.lhs.false6
  %11 = load ptr, ptr %d1.addr, align 8, !tbaa !3
  %call9 = call noundef zeroext i1 @_ZN8QuantLib4Date12isEndOfMonthERKS0_(ptr noundef nonnull align 8 dereferenceable(8) %11)
  br i1 %call9, label %if.then, label %if.else

if.then:                                          ; preds = %land.lhs.true8, %land.lhs.true, %entry
  %12 = load ptr, ptr %d2.addr, align 8, !tbaa !3
  %call10 = call noundef i32 @_ZNK8QuantLib4Date4yearEv(ptr noundef nonnull align 8 dereferenceable(8) %12)
  %13 = load ptr, ptr %d1.addr, align 8, !tbaa !3
  %call11 = call noundef i32 @_ZNK8QuantLib4Date4yearEv(ptr noundef nonnull align 8 dereferenceable(8) %13)
  %sub = sub nsw i32 %call10, %call11
  %conv = sitofp i32 %sub to double
  %14 = load ptr, ptr %d2.addr, align 8, !tbaa !3
  %call12 = call noundef i32 @_ZNK8QuantLib4Date5monthEv(ptr noundef nonnull align 8 dereferenceable(8) %14)
  %15 = load ptr, ptr %d1.addr, align 8, !tbaa !3
  %call13 = call noundef i32 @_ZNK8QuantLib4Date5monthEv(ptr noundef nonnull align 8 dereferenceable(8) %15)
  %sub14 = sub nsw i32 %call12, %call13
  %conv15 = sitofp i32 %sub14 to double
  %div = fdiv double %conv15, 1.200000e+01
  %add = fadd double %conv, %div
  store double %add, ptr %retval, align 8
  store i32 1, ptr %cleanup.dest.slot, align 4
  br label %cleanup

if.else:                                          ; preds = %land.lhs.true8, %lor.lhs.false6
  %16 = load ptr, ptr %d1.addr, align 8, !tbaa !3
  %17 = load ptr, ptr %d2.addr, align 8, !tbaa !3
  call void @llvm.lifetime.start.p0(i64 8, ptr %ref.tmp) #5
  call void @_ZN8QuantLib4DateC1Ev(ptr noundef nonnull align 8 dereferenceable(8) %ref.tmp)
  call void @llvm.lifetime.start.p0(i64 8, ptr %ref.tmp16) #5
  call void @_ZN8QuantLib4DateC1Ev(ptr noundef nonnull align 8 dereferenceable(8) %ref.tmp16)
  %call17 = call noundef double @_ZNK8QuantLib10DayCounter12yearFractionERKNS_4DateES3_S3_S3_(ptr noundef nonnull align 8 dereferenceable(16) @_ZN8QuantLib12_GLOBAL__N_18fallbackE, ptr noundef nonnull align 8 dereferenceable(8) %16, ptr noundef nonnull align 8 dereferenceable(8) %17, ptr noundef nonnull align 8 dereferenceable(8) %ref.tmp, ptr noundef nonnull align 8 dereferenceable(8) %ref.tmp16)
  store double %call17, ptr %retval, align 8
  call void @llvm.lifetime.end.p0(i64 8, ptr %ref.tmp16) #5
  call void @llvm.lifetime.end.p0(i64 8, ptr %ref.tmp) #5
  store i32 1, ptr %cleanup.dest.slot, align 4
  br label %cleanup

cleanup:                                          ; preds = %if.else, %if.then
  call void @llvm.lifetime.end.p0(i64 4, ptr %dm2) #5
  call void @llvm.lifetime.end.p0(i64 4, ptr %dm1) #5
  %18 = load double, ptr %retval, align 8
  ret double %18
}