; Function Attrs: mustprogress uwtable
define noundef double @_ZNK8QuantLib16SimpleDayCounter4Impl12yearFractionERKNS_4DateES4_S4_S4_(ptr nocapture nonnull readnone align 8 %this, ptr noundef nonnull align 8 dereferenceable(8) %d1, ptr noundef nonnull align 8 dereferenceable(8) %d2, ptr nocapture nonnull readnone align 8 %0, ptr nocapture nonnull readnone align 8 %1) unnamed_addr #4 align 2 {
entry:
  %ref.tmp = alloca %"class.QuantLib::Date", align 8
  %ref.tmp16 = alloca %"class.QuantLib::Date", align 8
  %2 = load i64, ptr %d1, align 8, !tbaa !18
  %call.i.i = tail call noundef i32 @_ZNK8QuantLib4Date4yearEv(ptr noundef nonnull align 8 dereferenceable(8) %d1)
  %call2.i.i = tail call noundef i64 @_ZN8QuantLib4Date10yearOffsetEi(i32 noundef %call.i.i)
  %sub.i.i = sub nsw i64 %2, %call2.i.i
  %conv.i.i = trunc i64 %sub.i.i to i32
  %call2.i = tail call noundef i32 @_ZNK8QuantLib4Date5monthEv(ptr noundef nonnull align 8 dereferenceable(8) %d1)
  %call3.i = tail call noundef i32 @_ZNK8QuantLib4Date4yearEv(ptr noundef nonnull align 8 dereferenceable(8) %d1)
  %call4.i = tail call noundef zeroext i1 @_ZN8QuantLib4Date6isLeapEi(i32 noundef %call3.i)
  %call5.i = tail call noundef i32 @_ZN8QuantLib4Date11monthOffsetENS_5MonthEb(i32 noundef %call2.i, i1 noundef zeroext %call4.i)
  %sub.i = sub nsw i32 %conv.i.i, %call5.i
  %3 = load i64, ptr %d2, align 8, !tbaa !18
  %call.i.i13 = tail call noundef i32 @_ZNK8QuantLib4Date4yearEv(ptr noundef nonnull align 8 dereferenceable(8) %d2)
  %call2.i.i14 = tail call noundef i64 @_ZN8QuantLib4Date10yearOffsetEi(i32 noundef %call.i.i13)
  %sub.i.i15 = sub nsw i64 %3, %call2.i.i14
  %conv.i.i16 = trunc i64 %sub.i.i15 to i32
  %call2.i17 = tail call noundef i32 @_ZNK8QuantLib4Date5monthEv(ptr noundef nonnull align 8 dereferenceable(8) %d2)
  %call3.i18 = tail call noundef i32 @_ZNK8QuantLib4Date4yearEv(ptr noundef nonnull align 8 dereferenceable(8) %d2)
  %call4.i19 = tail call noundef zeroext i1 @_ZN8QuantLib4Date6isLeapEi(i32 noundef %call3.i18)
  %call5.i20 = tail call noundef i32 @_ZN8QuantLib4Date11monthOffsetENS_5MonthEb(i32 noundef %call2.i17, i1 noundef zeroext %call4.i19)
  %sub.i21 = sub nsw i32 %conv.i.i16, %call5.i20
  %cmp = icmp eq i32 %sub.i, %sub.i21
  br i1 %cmp, label %if.then, label %lor.lhs.false

lor.lhs.false:                                    ; preds = %entry
  %cmp4 = icmp sgt i32 %sub.i, %sub.i21
  br i1 %cmp4, label %land.lhs.true, label %lor.lhs.false6

land.lhs.true:                                    ; preds = %lor.lhs.false
  %4 = load i64, ptr %d2, align 8, !tbaa !18
  %call.i.i.i = tail call noundef i32 @_ZNK8QuantLib4Date4yearEv(ptr noundef nonnull align 8 dereferenceable(8) %d2)
  %call2.i.i.i = tail call noundef i64 @_ZN8QuantLib4Date10yearOffsetEi(i32 noundef %call.i.i.i)
  %sub.i.i.i = sub nsw i64 %4, %call2.i.i.i
  %conv.i.i.i = trunc i64 %sub.i.i.i to i32
  %call2.i.i22 = tail call noundef i32 @_ZNK8QuantLib4Date5monthEv(ptr noundef nonnull align 8 dereferenceable(8) %d2)
  %call3.i.i = tail call noundef i32 @_ZNK8QuantLib4Date4yearEv(ptr noundef nonnull align 8 dereferenceable(8) %d2)
  %call4.i.i = tail call noundef zeroext i1 @_ZN8QuantLib4Date6isLeapEi(i32 noundef %call3.i.i)
  %call5.i.i = tail call noundef i32 @_ZN8QuantLib4Date11monthOffsetENS_5MonthEb(i32 noundef %call2.i.i22, i1 noundef zeroext %call4.i.i)
  %sub.i.i23 = sub nsw i32 %conv.i.i.i, %call5.i.i
  %call1.i = tail call noundef i32 @_ZNK8QuantLib4Date5monthEv(ptr noundef nonnull align 8 dereferenceable(8) %d2)
  %call2.i24 = tail call noundef i32 @_ZNK8QuantLib4Date4yearEv(ptr noundef nonnull align 8 dereferenceable(8) %d2)
  %call3.i25 = tail call noundef zeroext i1 @_ZN8QuantLib4Date6isLeapEi(i32 noundef %call2.i24)
  %call4.i26 = tail call noundef i32 @_ZN8QuantLib4Date11monthLengthENS_5MonthEb(i32 noundef %call1.i, i1 noundef zeroext %call3.i25)
  %cmp.i = icmp eq i32 %sub.i.i23, %call4.i26
  br i1 %cmp.i, label %if.then, label %lor.lhs.false6

lor.lhs.false6:                                   ; preds = %land.lhs.true, %lor.lhs.false
  %cmp7 = icmp slt i32 %sub.i, %sub.i21
  br i1 %cmp7, label %land.lhs.true8, label %if.else

land.lhs.true8:                                   ; preds = %lor.lhs.false6
  %5 = load i64, ptr %d1, align 8, !tbaa !18
  %call.i.i.i27 = tail call noundef i32 @_ZNK8QuantLib4Date4yearEv(ptr noundef nonnull align 8 dereferenceable(8) %d1)
  %call2.i.i.i28 = tail call noundef i64 @_ZN8QuantLib4Date10yearOffsetEi(i32 noundef %call.i.i.i27)
  %sub.i.i.i29 = sub nsw i64 %5, %call2.i.i.i28
  %conv.i.i.i30 = trunc i64 %sub.i.i.i29 to i32
  %call2.i.i31 = tail call noundef i32 @_ZNK8QuantLib4Date5monthEv(ptr noundef nonnull align 8 dereferenceable(8) %d1)
  %call3.i.i32 = tail call noundef i32 @_ZNK8QuantLib4Date4yearEv(ptr noundef nonnull align 8 dereferenceable(8) %d1)
  %call4.i.i33 = tail call noundef zeroext i1 @_ZN8QuantLib4Date6isLeapEi(i32 noundef %call3.i.i32)
  %call5.i.i34 = tail call noundef i32 @_ZN8QuantLib4Date11monthOffsetENS_5MonthEb(i32 noundef %call2.i.i31, i1 noundef zeroext %call4.i.i33)
  %sub.i.i35 = sub nsw i32 %conv.i.i.i30, %call5.i.i34
  %call1.i36 = tail call noundef i32 @_ZNK8QuantLib4Date5monthEv(ptr noundef nonnull align 8 dereferenceable(8) %d1)
  %call2.i37 = tail call noundef i32 @_ZNK8QuantLib4Date4yearEv(ptr noundef nonnull align 8 dereferenceable(8) %d1)
  %call3.i38 = tail call noundef zeroext i1 @_ZN8QuantLib4Date6isLeapEi(i32 noundef %call2.i37)
  %call4.i39 = tail call noundef i32 @_ZN8QuantLib4Date11monthLengthENS_5MonthEb(i32 noundef %call1.i36, i1 noundef zeroext %call3.i38)
  %cmp.i40 = icmp eq i32 %sub.i.i35, %call4.i39
  br i1 %cmp.i40, label %if.then, label %if.else

if.then:                                          ; preds = %land.lhs.true8, %land.lhs.true, %entry
  %call10 = tail call noundef i32 @_ZNK8QuantLib4Date4yearEv(ptr noundef nonnull align 8 dereferenceable(8) %d2)
  %call11 = tail call noundef i32 @_ZNK8QuantLib4Date4yearEv(ptr noundef nonnull align 8 dereferenceable(8) %d1)
  %sub = sub nsw i32 %call10, %call11
  %conv = sitofp i32 %sub to double
  %call12 = tail call noundef i32 @_ZNK8QuantLib4Date5monthEv(ptr noundef nonnull align 8 dereferenceable(8) %d2)
  %call13 = tail call noundef i32 @_ZNK8QuantLib4Date5monthEv(ptr noundef nonnull align 8 dereferenceable(8) %d1)
  %sub14 = sub nsw i32 %call12, %call13
  %conv15 = sitofp i32 %sub14 to double
  %div = fdiv double %conv15, 1.200000e+01
  %add = fadd double %div, %conv
  br label %cleanup

if.else:                                          ; preds = %land.lhs.true8, %lor.lhs.false6
  call void @llvm.lifetime.start.p0(i64 8, ptr nonnull %ref.tmp) #18
  call void @_ZN8QuantLib4DateC1Ev(ptr noundef nonnull align 8 dereferenceable(8) %ref.tmp)
  call void @llvm.lifetime.start.p0(i64 8, ptr nonnull %ref.tmp16) #18
  call void @_ZN8QuantLib4DateC1Ev(ptr noundef nonnull align 8 dereferenceable(8) %ref.tmp16)
  %call17 = call noundef double @_ZNK8QuantLib10DayCounter12yearFractionERKNS_4DateES3_S3_S3_(ptr noundef nonnull align 8 dereferenceable(16) @_ZN8QuantLib12_GLOBAL__N_18fallbackE, ptr noundef nonnull align 8 dereferenceable(8) %d1, ptr noundef nonnull align 8 dereferenceable(8) %d2, ptr noundef nonnull align 8 dereferenceable(8) %ref.tmp, ptr noundef nonnull align 8 dereferenceable(8) %ref.tmp16)
  call void @llvm.lifetime.end.p0(i64 8, ptr nonnull %ref.tmp16) #18
  call void @llvm.lifetime.end.p0(i64 8, ptr nonnull %ref.tmp) #18
  br label %cleanup

cleanup:                                          ; preds = %if.else, %if.then
  %retval.0 = phi double [ %add, %if.then ], [ %call17, %if.else ]
  ret double %retval.0
}